; Function Attrs: mustprogress nounwind uwtable
define dso_local void @_ZN14cmFileLockPoolD2Ev(ptr noundef nonnull readonly align 8 captures(none) dereferenceable(72) %0) unnamed_addr #1 align 2 personality ptr @__gxx_personality_v0 {
  %2 = getelementptr inbounds nuw i8, ptr %0, i64 48
  %3 = load ptr, ptr %2, align 8
  %4 = getelementptr inbounds nuw i8, ptr %0, i64 56
  %5 = load ptr, ptr %4, align 8
  %.not4.i.i.i.i.i = icmp eq ptr %3, %5
  br i1 %.not4.i.i.i.i.i, label %_ZSt8_DestroyIP10cmFileLockS0_EvT_S2_RSaIT0_E.exit.i.i, label %.lr.ph.i.i.i.i.i

.lr.ph.i.i.i.i.i:                                 ; preds = %1, %.lr.ph.i.i.i.i.i
  %.05.i.i.i.i.i = phi ptr [ %6, %.lr.ph.i.i.i.i.i ], [ %3, %1 ]
  tail call void @_ZN10cmFileLockD1Ev(ptr noundef nonnull align 8 dereferenceable(40) %.05.i.i.i.i.i) #13
  %6 = getelementptr inbounds nuw i8, ptr %.05.i.i.i.i.i, i64 40
  %.not.i.i.i.i.i = icmp eq ptr %6, %5
  br i1 %.not.i.i.i.i.i, label %_ZSt8_DestroyIP10cmFileLockS0_EvT_S2_RSaIT0_E.exitthread-pre-split.i.i, label %.lr.ph.i.i.i.i.i, !llvm.loop !5

_ZSt8_DestroyIP10cmFileLockS0_EvT_S2_RSaIT0_E.exitthread-pre-split.i.i: ; preds = %.lr.ph.i.i.i.i.i
  %.pr.i.i = load ptr, ptr %2, align 8
  br label %_ZSt8_DestroyIP10cmFileLockS0_EvT_S2_RSaIT0_E.exit.i.i

_ZSt8_DestroyIP10cmFileLockS0_EvT_S2_RSaIT0_E.exit.i.i: ; preds = %_ZSt8_DestroyIP10cmFileLockS0_EvT_S2_RSaIT0_E.exitthread-pre-split.i.i, %1
  %7 = phi ptr [ %.pr.i.i, %_ZSt8_DestroyIP10cmFileLockS0_EvT_S2_RSaIT0_E.exitthread-pre-split.i.i ], [ %3, %1 ]
  %.not.i.i.i.i = icmp eq ptr %7, null
  br i1 %.not.i.i.i.i, label %_ZN14cmFileLockPool9ScopePoolD2Ev.exit, label %8

8:                                                ; preds = %_ZSt8_DestroyIP10cmFileLockS0_EvT_S2_RSaIT0_E.exit.i.i
  tail call void @_ZdlPv(ptr noundef nonnull %7) #14
  br label %_ZN14cmFileLockPool9ScopePoolD2Ev.exit

_ZN14cmFileLockPool9ScopePoolD2Ev.exit:           ; preds = %_ZSt8_DestroyIP10cmFileLockS0_EvT_S2_RSaIT0_E.exit.i.i, %8
  %9 = getelementptr inbounds nuw i8, ptr %0, i64 24
  %10 = load ptr, ptr %9, align 8
  %11 = getelementptr inbounds nuw i8, ptr %0, i64 32
  %12 = load ptr, ptr %11, align 8
  %.not4.i.i.i.i = icmp eq ptr %10, %12
  br i1 %.not4.i.i.i.i, label %_ZSt8_DestroyIPN14cmFileLockPool9ScopePoolES1_EvT_S3_RSaIT0_E.exit.i, label %.lr.ph.i.i.i.i

.lr.ph.i.i.i.i:                                   ; preds = %_ZN14cmFileLockPool9ScopePoolD2Ev.exit, %_ZSt8_DestroyIN14cmFileLockPool9ScopePoolEEvPT_.exit.i.i.i.i
  %.05.i.i.i.i = phi ptr [ %19, %_ZSt8_DestroyIN14cmFileLockPool9ScopePoolEEvPT_.exit.i.i.i.i ], [ %10, %_ZN14cmFileLockPool9ScopePoolD2Ev.exit ]
  %13 = load ptr, ptr %.05.i.i.i.i, align 8
  %14 = getelementptr inbounds nuw i8, ptr %.05.i.i.i.i, i64 8
  %15 = load ptr, ptr %14, align 8
  %.not4.i.i.i.i.i.i.i.i.i.i = icmp eq ptr %13, %15
  br i1 %.not4.i.i.i.i.i.i.i.i.i.i, label %_ZSt8_DestroyIP10cmFileLockS0_EvT_S2_RSaIT0_E.exit.i.i.i.i.i.i.i, label %.lr.ph.i.i.i.i.i.i.i.i.i.i

.lr.ph.i.i.i.i.i.i.i.i.i.i:                       ; preds = %.lr.ph.i.i.i.i, %.lr.ph.i.i.i.i.i.i.i.i.i.i
  %.05.i.i.i.i.i.i.i.i.i.i = phi ptr [ %16, %.lr.ph.i.i.i.i.i.i.i.i.i.i ], [ %13, %.lr.ph.i.i.i.i ]
  tail call void @_ZN10cmFileLockD1Ev(ptr noundef nonnull align 8 dereferenceable(40) %.05.i.i.i.i.i.i.i.i.i.i) #13
  %16 = getelementptr inbounds nuw i8, ptr %.05.i.i.i.i.i.i.i.i.i.i, i64 40
  %.not.i.i.i.i.i.i.i.i.i.i = icmp eq ptr %16, %15
  br i1 %.not.i.i.i.i.i.i.i.i.i.i, label %_ZSt8_DestroyIP10cmFileLockS0_EvT_S2_RSaIT0_E.exitthread-pre-split.i.i.i.i.i.i.i, label %.lr.ph.i.i.i.i.i.i.i.i.i.i, !llvm.loop !5

_ZSt8_DestroyIP10cmFileLockS0_EvT_S2_RSaIT0_E.exitthread-pre-split.i.i.i.i.i.i.i: ; preds = %.lr.ph.i.i.i.i.i.i.i.i.i.i
  %.pr.i.i.i.i.i.i.i = load ptr, ptr %.05.i.i.i.i, align 8
  br label %_ZSt8_DestroyIP10cmFileLockS0_EvT_S2_RSaIT0_E.exit.i.i.i.i.i.i.i

_ZSt8_DestroyIP10cmFileLockS0_EvT_S2_RSaIT0_E.exit.i.i.i.i.i.i.i: ; preds = %_ZSt8_DestroyIP10cmFileLockS0_EvT_S2_RSaIT0_E.exitthread-pre-split.i.i.i.i.i.i.i, %.lr.ph.i.i.i.i
  %17 = phi ptr [ %.pr.i.i.i.i.i.i.i, %_ZSt8_DestroyIP10cmFileLockS0_EvT_S2_RSaIT0_E.exitthread-pre-split.i.i.i.i.i.i.i ], [ %13, %.lr.ph.i.i.i.i ]
  %.not.i.i.i.i.i.i.i.i.i = icmp eq ptr %17, null
  br i1 %.not.i.i.i.i.i.i.i.i.i, label %_ZSt8_DestroyIN14cmFileLockPool9ScopePoolEEvPT_.exit.i.i.i.i, label %18

18:                                               ; preds = %_ZSt8_DestroyIP10cmFileLockS0_EvT_S2_RSaIT0_E.exit.i.i.i.i.i.i.i
  tail call void @_ZdlPv(ptr noundef nonnull %17) #14
  br label %_ZSt8_DestroyIN14cmFileLockPool9ScopePoolEEvPT_.exit.i.i.i.i

_ZSt8_DestroyIN14cmFileLockPool9ScopePoolEEvPT_.exit.i.i.i.i: ; preds = %18, %_ZSt8_DestroyIP10cmFileLockS0_EvT_S2_RSaIT0_E.exit.i.i.i.i.i.i.i
  %19 = getelementptr inbounds nuw i8, ptr %.05.i.i.i.i, i64 24
  %.not.i.i.i.i1 = icmp eq ptr %19, %12
  br i1 %.not.i.i.i.i1, label %_ZSt8_DestroyIPN14cmFileLockPool9ScopePoolES1_EvT_S3_RSaIT0_E.exitthread-pre-split.i, label %.lr.ph.i.i.i.i, !llvm.loop !7

_ZSt8_DestroyIPN14cmFileLockPool9ScopePoolES1_EvT_S3_RSaIT0_E.exitthread-pre-split.i: ; preds = %_ZSt8_DestroyIN14cmFileLockPool9ScopePoolEEvPT_.exit.i.i.i.i
  %.pr.i = load ptr, ptr %9, align 8
  br label %_ZSt8_DestroyIPN14cmFileLockPool9ScopePoolES1_EvT_S3_RSaIT0_E.exit.i

_ZSt8_DestroyIPN14cmFileLockPool9ScopePoolES1_EvT_S3_RSaIT0_E.exit.i: ; preds = %_ZSt8_DestroyIPN14cmFileLockPool9ScopePoolES1_EvT_S3_RSaIT0_E.exitthread-pre-split.i, %_ZN14cmFileLockPool9ScopePoolD2Ev.exit
  %20 = phi ptr [ %.pr.i, %_ZSt8_DestroyIPN14cmFileLockPool9ScopePoolES1_EvT_S3_RSaIT0_E.exitthread-pre-split.i ], [ %10, %_ZN14cmFileLockPool9ScopePoolD2Ev.exit ]
  %.not.i.i.i = icmp eq ptr %20, null
  br i1 %.not.i.i.i, label %_ZNSt6vectorIN14cmFileLockPool9ScopePoolESaIS1_EED2Ev.exit, label %21

21:                                               ; preds = %_ZSt8_DestroyIPN14cmFileLockPool9ScopePoolES1_EvT_S3_RSaIT0_E.exit.i
  tail call void @_ZdlPv(ptr noundef nonnull %20) #14
  br label %_ZNSt6vectorIN14cmFileLockPool9ScopePoolESaIS1_EED2Ev.exit

_ZNSt6vectorIN14cmFileLockPool9ScopePoolESaIS1_EED2Ev.exit: ; preds = %_ZSt8_DestroyIPN14cmFileLockPool9ScopePoolES1_EvT_S3_RSaIT0_E.exit.i, %21
  %22 = load ptr, ptr %0, align 8
  %23 = getelementptr inbounds nuw i8, ptr %0, i64 8
  %24 = load ptr, ptr %23, align 8
  %.not4.i.i.i.i2 = icmp eq ptr %22, %24
  br i1 %.not4.i.i.i.i2, label %_ZSt8_DestroyIPN14cmFileLockPool9ScopePoolES1_EvT_S3_RSaIT0_E.exit.i17, label %.lr.ph.i.i.i.i3

.lr.ph.i.i.i.i3:                                  ; preds = %_ZNSt6vectorIN14cmFileLockPool9ScopePoolESaIS1_EED2Ev.exit, %_ZSt8_DestroyIN14cmFileLockPool9ScopePoolEEvPT_.exit.i.i.i.i13
  %.05.i.i.i.i4 = phi ptr [ %31, %_ZSt8_DestroyIN14cmFileLockPool9ScopePoolEEvPT_.exit.i.i.i.i13 ], [ %22, %_ZNSt6vectorIN14cmFileLockPool9ScopePoolESaIS1_EED2Ev.exit ]
  %25 = load ptr, ptr %.05.i.i.i.i4, align 8
  %26 = getelementptr inbounds nuw i8, ptr %.05.i.i.i.i4, i64 8
  %27 = load ptr, ptr %26, align 8
  %.not4.i.i.i.i.i.i.i.i.i.i5 = icmp eq ptr %25, %27
  br i1 %.not4.i.i.i.i.i.i.i.i.i.i5, label %_ZSt8_DestroyIP10cmFileLockS0_EvT_S2_RSaIT0_E.exit.i.i.i.i.i.i.i11, label %.lr.ph.i.i.i.i.i.i.i.i.i.i6

.lr.ph.i.i.i.i.i.i.i.i.i.i6:                      ; preds = %.lr.ph.i.i.i.i3, %.lr.ph.i.i.i.i.i.i.i.i.i.i6
  %.05.i.i.i.i.i.i.i.i.i.i7 = phi ptr [ %28, %.lr.ph.i.i.i.i.i.i.i.i.i.i6 ], [ %25, %.lr.ph.i.i.i.i3 ]
  tail call void @_ZN10cmFileLockD1Ev(ptr noundef nonnull align 8 dereferenceable(40) %.05.i.i.i.i.i.i.i.i.i.i7) #13
  %28 = getelementptr inbounds nuw i8, ptr %.05.i.i.i.i.i.i.i.i.i.i7, i64 40
  %.not.i.i.i.i.i.i.i.i.i.i8 = icmp eq ptr %28, %27
  br i1 %.not.i.i.i.i.i.i.i.i.i.i8, label %_ZSt8_DestroyIP10cmFileLockS0_EvT_S2_RSaIT0_E.exitthread-pre-split.i.i.i.i.i.i.i9, label %.lr.ph.i.i.i.i.i.i.i.i.i.i6, !llvm.loop !5

_ZSt8_DestroyIP10cmFileLockS0_EvT_S2_RSaIT0_E.exitthread-pre-split.i.i.i.i.i.i.i9: ; preds = %.lr.ph.i.i.i.i.i.i.i.i.i.i6
  %.pr.i.i.i.i.i.i.i10 = load ptr, ptr %.05.i.i.i.i4, align 8
  br label %_ZSt8_DestroyIP10cmFileLockS0_EvT_S2_RSaIT0_E.exit.i.i.i.i.i.i.i11

_ZSt8_DestroyIP10cmFileLockS0_EvT_S2_RSaIT0_E.exit.i.i.i.i.i.i.i11: ; preds = %_ZSt8_DestroyIP10cmFileLockS0_EvT_S2_RSaIT0_E.exitthread-pre-split.i.i.i.i.i.i.i9, %.lr.ph.i.i.i.i3
  %29 = phi ptr [ %.pr.i.i.i.i.i.i.i10, %_ZSt8_DestroyIP10cmFileLockS0_EvT_S2_RSaIT0_E.exitthread-pre-split.i.i.i.i.i.i.i9 ], [ %25, %.lr.ph.i.i.i.i3 ]
  %.not.i.i.i.i.i.i.i.i.i12 = icmp eq ptr %29, null
  br i1 %.not.i.i.i.i.i.i.i.i.i12, label %_ZSt8_DestroyIN14cmFileLockPool9ScopePoolEEvPT_.exit.i.i.i.i13, label %30

30:                                               ; preds = %_ZSt8_DestroyIP10cmFileLockS0_EvT_S2_RSaIT0_E.exit.i.i.i.i.i.i.i11
  tail call void @_ZdlPv(ptr noundef nonnull %29) #14
  br label %_ZSt8_DestroyIN14cmFileLockPool9ScopePoolEEvPT_.exit.i.i.i.i13

_ZSt8_DestroyIN14cmFileLockPool9ScopePoolEEvPT_.exit.i.i.i.i13: ; preds = %30, %_ZSt8_DestroyIP10cmFileLockS0_EvT_S2_RSaIT0_E.exit.i.i.i.i.i.i.i11
  %31 = getelementptr inbounds nuw i8, ptr %.05.i.i.i.i4, i64 24
  %.not.i.i.i.i14 = icmp eq ptr %31, %24
  br i1 %.not.i.i.i.i14, label %_ZSt8_DestroyIPN14cmFileLockPool9ScopePoolES1_EvT_S3_RSaIT0_E.exitthread-pre-split.i15, label %.lr.ph.i.i.i.i3, !llvm.loop !7

_ZSt8_DestroyIPN14cmFileLockPool9ScopePoolES1_EvT_S3_RSaIT0_E.exitthread-pre-split.i15: ; preds = %_ZSt8_DestroyIN14cmFileLockPool9ScopePoolEEvPT_.exit.i.i.i.i13
  %.pr.i16 = load ptr, ptr %0, align 8
  br label %_ZSt8_DestroyIPN14cmFileLockPool9ScopePoolES1_EvT_S3_RSaIT0_E.exit.i17

_ZSt8_DestroyIPN14cmFileLockPool9ScopePoolES1_EvT_S3_RSaIT0_E.exit.i17: ; preds = %_ZSt8_DestroyIPN14cmFileLockPool9ScopePoolES1_EvT_S3_RSaIT0_E.exitthread-pre-split.i15, %_ZNSt6vectorIN14cmFileLockPool9ScopePoolESaIS1_EED2Ev.exit
  %32 = phi ptr [ %.pr.i16, %_ZSt8_DestroyIPN14cmFileLockPool9ScopePoolES1_EvT_S3_RSaIT0_E.exitthread-pre-split.i15 ], [ %22, %_ZNSt6vectorIN14cmFileLockPool9ScopePoolESaIS1_EED2Ev.exit ]
  %.not.i.i.i18 = icmp eq ptr %32, null
  br i1 %.not.i.i.i18, label %_ZNSt6vectorIN14cmFileLockPool9ScopePoolESaIS1_EED2Ev.exit19, label %33

33:                                               ; preds = %_ZSt8_DestroyIPN14cmFileLockPool9ScopePoolES1_EvT_S3_RSaIT0_E.exit.i17
  tail call void @_ZdlPv(ptr noundef nonnull %32) #14
  br label %_ZNSt6vectorIN14cmFileLockPool9ScopePoolESaIS1_EED2Ev.exit19

_ZNSt6vectorIN14cmFileLockPool9ScopePoolESaIS1_EED2Ev.exit19: ; preds = %_ZSt8_DestroyIPN14cmFileLockPool9ScopePoolES1_EvT_S3_RSaIT0_E.exit.i17, %33
  ret void
}